target datalayout = "e-m:e-p270:32:32-p271:32:32-p272:64:64-i64:64-i128:128-f80:128-n8:16:32:64-S128"
target triple = "x86_64-pc-linux-gnu"

@_ZZN2cv10ThreadPool8instanceEvE8instance = linkonce_odr hidden global ptr null, comdat, align 8
@_ZGVZN2cv10ThreadPool8instanceEvE8instance = linkonce_odr hidden global i64 0, comdat, align 8
@_ZN2cv10ThreadPoolC1Ev = hidden unnamed_addr alias void (ptr), ptr @_ZN2cv10ThreadPoolC2Ev

; Function Attrs: mustprogress uwtable
define linkonce_odr hidden noundef nonnull align 8 dereferenceable(176) ptr @_ZN2cv10ThreadPool8instanceEv() #4 comdat align 2 personality ptr @__gxx_personality_v0 {
  %1 = alloca ptr, align 8
  %2 = alloca i32, align 4
  %3 = load atomic i8, ptr @_ZGVZN2cv10ThreadPool8instanceEvE8instance acquire, align 8
  %4 = icmp eq i8 %3, 0
  br i1 %4, label %5, label %13, !prof !114

5:                                                ; preds = %0
  %6 = call i32 @__cxa_guard_acquire(ptr @_ZGVZN2cv10ThreadPool8instanceEvE8instance) #3
  %7 = icmp ne i32 %6, 0
  br i1 %7, label %8, label %13

8:                                                ; preds = %5
  %9 = invoke noalias noundef nonnull ptr @_Znwm(i64 noundef 176) #21
          to label %10 unwind label %15

10:                                               ; preds = %8
  invoke void @_ZN2cv10ThreadPoolC1Ev(ptr noundef nonnull align 8 dereferenceable(176) %9)
          to label %11 unwind label %19

11:                                               ; preds = %10
  store ptr %9, ptr @_ZZN2cv10ThreadPool8instanceEvE8instance, align 8, !tbaa !71
  %12 = call ptr @llvm.invariant.start.p0(i64 8, ptr @_ZZN2cv10ThreadPool8instanceEvE8instance)
  call void @__cxa_guard_release(ptr @_ZGVZN2cv10ThreadPool8instanceEvE8instance) #3
  br label %13

13:                                               ; preds = %11, %5, %0
  %14 = load ptr, ptr @_ZZN2cv10ThreadPool8instanceEvE8instance, align 8, !tbaa !71
  ret ptr %14

15:                                               ; preds = %8
  %16 = landingpad { ptr, i32 }
          cleanup
  %17 = extractvalue { ptr, i32 } %16, 0
  store ptr %17, ptr %1, align 8
  %18 = extractvalue { ptr, i32 } %16, 1
  store i32 %18, ptr %2, align 4
  br label %23

19:                                               ; preds = %10
  %20 = landingpad { ptr, i32 }
          cleanup
  %21 = extractvalue { ptr, i32 } %20, 0
  store ptr %21, ptr %1, align 8
  %22 = extractvalue { ptr, i32 } %20, 1
  store i32 %22, ptr %2, align 4
  call void @_ZdlPv(ptr noundef %9) #22
  br label %23

23:                                               ; preds = %19, %15
  call void @__cxa_guard_abort(ptr @_ZGVZN2cv10ThreadPool8instanceEvE8instance) #3
  br label %24

24:                                               ; preds = %23
  %25 = load ptr, ptr %1, align 8
  %26 = load i32, ptr %2, align 4
  %27 = insertvalue { ptr, i32 } poison, ptr %25, 0
  %28 = insertvalue { ptr, i32 } %27, i32 %26, 1
  resume { ptr, i32 } %28
}

; Function Attrs: mustprogress uwtable
define hidden void @_ZN2cv21parallel_for_pthreadsERKNS_5RangeERKNS_16ParallelLoopBodyEd(ptr noundef nonnull align 4 dereferenceable(8) %0, ptr noundef nonnull align 8 dereferenceable(8) %1, double noundef %2) #4 {
  %4 = alloca ptr, align 8
  %5 = alloca ptr, align 8
  %6 = alloca double, align 8
  store ptr %0, ptr %4, align 8, !tbaa !39
  store ptr %1, ptr %5, align 8, !tbaa !93
  store double %2, ptr %6, align 8, !tbaa !94
  %7 = call noundef nonnull align 8 dereferenceable(176) ptr @_ZN2cv10ThreadPool8instanceEv()
  %8 = load ptr, ptr %4, align 8, !tbaa !39
  %9 = load ptr, ptr %5, align 8, !tbaa !93
  %10 = load double, ptr %6, align 8, !tbaa !94
  call void @_ZN2cv10ThreadPool3runERKNS_5RangeERKNS_16ParallelLoopBodyEd(ptr noundef nonnull align 8 dereferenceable(176) %7, ptr noundef nonnull align 4 dereferenceable(8) %8, ptr noundef nonnull align 8 dereferenceable(8) %9, double noundef %10)
  ret void
}