; Function Attrs: mustprogress uwtable
define hidden void @_ZN2cv21parallel_for_pthreadsERKNS_5RangeERKNS_16ParallelLoopBodyEd(ptr noundef nonnull align 4 dereferenceable(8) %0, ptr noundef nonnull align 8 dereferenceable(8) %1, double noundef %2) local_unnamed_addr #3 personality ptr @__gxx_personality_v0 {
  %4 = load atomic i8, ptr @_ZGVZN2cv10ThreadPool8instanceEvE8instance acquire, align 8
  %5 = icmp eq i8 %4, 0
  br i1 %5, label %6, label %_ZN2cv10ThreadPool8instanceEv.exit, !prof !130

6:                                                ; preds = %3
  %7 = tail call i32 @__cxa_guard_acquire(ptr nonnull @_ZGVZN2cv10ThreadPool8instanceEvE8instance) #5
  %.not.i = icmp eq i32 %7, 0
  br i1 %.not.i, label %_ZN2cv10ThreadPool8instanceEv.exit, label %8

8:                                                ; preds = %6
  %9 = invoke noalias noundef nonnull dereferenceable(176) ptr @_Znwm(i64 noundef 176) #23
          to label %10 unwind label %13

10:                                               ; preds = %8
  invoke void @_ZN2cv10ThreadPoolC2Ev(ptr noundef nonnull align 8 dereferenceable(176) %9)
          to label %11 unwind label %15

11:                                               ; preds = %10
  store ptr %9, ptr @_ZZN2cv10ThreadPool8instanceEvE8instance, align 8, !tbaa !96
  %12 = tail call ptr @llvm.invariant.start.p0(i64 8, ptr nonnull @_ZZN2cv10ThreadPool8instanceEvE8instance)
  tail call void @__cxa_guard_release(ptr nonnull @_ZGVZN2cv10ThreadPool8instanceEvE8instance) #5
  br label %_ZN2cv10ThreadPool8instanceEv.exit

13:                                               ; preds = %8
  %14 = landingpad { ptr, i32 }
          cleanup
  br label %17

15:                                               ; preds = %10
  %16 = landingpad { ptr, i32 }
          cleanup
  tail call void @_ZdlPv(ptr noundef nonnull %9) #21
  br label %17

17:                                               ; preds = %15, %13
  %.pn.i = phi { ptr, i32 } [ %16, %15 ], [ %14, %13 ]
  tail call void @__cxa_guard_abort(ptr nonnull @_ZGVZN2cv10ThreadPool8instanceEvE8instance) #5
  resume { ptr, i32 } %.pn.i

_ZN2cv10ThreadPool8instanceEv.exit:               ; preds = %3, %6, %11
  %18 = load ptr, ptr @_ZZN2cv10ThreadPool8instanceEvE8instance, align 8, !tbaa !96
  tail call void @_ZN2cv10ThreadPool3runERKNS_5RangeERKNS_16ParallelLoopBodyEd(ptr noundef nonnull align 8 dereferenceable(176) %18, ptr noundef nonnull align 4 dereferenceable(8) %0, ptr noundef nonnull align 8 dereferenceable(8) %1, double noundef %2)
  ret void
}